target datalayout = "e-m:e-p270:32:32-p271:32:32-p272:64:64-i64:64-i128:128-f80:128-n8:16:32:64-S128"
target triple = "x86_64-pc-linux-gnu"

%struct.Gia_Man_t_ = type { ptr, ptr, i32, i32, i32, i32, ptr, ptr, i32, i32, i32, ptr, ptr, %struct.Vec_Int_t_, %struct.Vec_Int_t_, i32, i32, i32, %struct.Vec_Int_t_, ptr, ptr, ptr, i32, i32, i32, i32, ptr, ptr, ptr, ptr, ptr, i32, i32, ptr, i32, ptr, ptr, ptr, ptr, ptr, ptr, ptr, ptr, ptr, ptr, ptr, ptr, ptr, ptr, ptr, ptr, ptr, ptr, %struct.Vec_Int_t_, %struct.Vec_Int_t_, ptr, ptr, ptr, ptr, ptr, ptr, ptr, ptr, ptr, ptr, ptr, ptr, ptr, ptr, ptr, ptr, ptr, ptr, ptr, ptr, ptr, i32, float, float, ptr, ptr, i32, ptr, ptr, ptr, ptr, ptr, ptr, ptr, ptr, ptr, ptr, ptr, ptr, ptr, ptr, ptr, i64, i64, ptr, ptr, i32, i32, i32, i32, i32, i32, i32, i32, i32, i32, i32, i32, ptr, ptr, ptr, ptr, ptr, ptr, ptr, ptr, i32, i32, i32, ptr, i32, i32, ptr, ptr, ptr, ptr, ptr, ptr, i32, i32, ptr, %struct.Vec_Int_t_, %struct.Vec_Int_t_, %struct.Vec_Int_t_, ptr, ptr, ptr }
%struct.Vec_Int_t_ = type { i32, i32, ptr }
%struct.Vec_Wrd_t_ = type { i32, i32, ptr }
%struct.timespec = type { i64, i64 }

@.str.26 = private unnamed_addr constant [5 x i8] c"Time\00", align 1
@.str.84 = private unnamed_addr constant [5 x i8] c"%s =\00", align 1
@.str.85 = private unnamed_addr constant [11 x i8] c"%9.2f sec\0A\00", align 1

; Function Attrs: nounwind uwtable
define internal i32 @Vec_IntSize(ptr noundef %0) #0 {
  %2 = alloca ptr, align 8
  store ptr %0, ptr %2, align 8
  %3 = load ptr, ptr %2, align 8
  %4 = getelementptr inbounds %struct.Vec_Int_t_, ptr %3, i32 0, i32 1
  %5 = load i32, ptr %4, align 4
  ret i32 %5
}

; Function Attrs: nounwind uwtable
define internal void @Abc_PrintTime(i32 noundef %0, ptr noundef %1, i64 noundef %2) #0 {
  %4 = alloca i32, align 4
  %5 = alloca ptr, align 8
  %6 = alloca i64, align 8
  store i32 %0, ptr %4, align 4
  store ptr %1, ptr %5, align 8
  store i64 %2, ptr %6, align 8
  %7 = load ptr, ptr %5, align 8
  call void (i32, ptr, ...) @Abc_Print(i32 noundef 1, ptr noundef @.str.84, ptr noundef %7)
  %8 = load i64, ptr %6, align 8
  %9 = sitofp i64 %8 to double
  %10 = fmul double 1.000000e+00, %9
  %11 = fdiv double %10, 1.000000e+06
  call void (i32, ptr, ...) @Abc_Print(i32 noundef 1, ptr noundef @.str.85, double noundef %11)
  ret void
}

; Function Attrs: nounwind uwtable
define internal i32 @Gia_ManCiNum(ptr noundef %0) #0 {
  %2 = alloca ptr, align 8
  store ptr %0, ptr %2, align 8
  %3 = load ptr, ptr %2, align 8
  %4 = getelementptr inbounds %struct.Gia_Man_t_, ptr %3, i32 0, i32 11
  %5 = load ptr, ptr %4, align 8
  %6 = call i32 @Vec_IntSize(ptr noundef %5)
  ret i32 %6
}

; Function Attrs: nounwind uwtable
define internal void @Vec_WrdFreeP(ptr noundef %0) #0 {
  %2 = alloca ptr, align 8
  store ptr %0, ptr %2, align 8
  %3 = load ptr, ptr %2, align 8
  %4 = load ptr, ptr %3, align 8
  %5 = icmp eq ptr %4, null
  br i1 %5, label %6, label %7

6:                                                ; preds = %1
  br label %32

7:                                                ; preds = %1
  %8 = load ptr, ptr %2, align 8
  %9 = load ptr, ptr %8, align 8
  %10 = getelementptr inbounds %struct.Vec_Wrd_t_, ptr %9, i32 0, i32 2
  %11 = load ptr, ptr %10, align 8
  %12 = icmp ne ptr %11, null
  br i1 %12, label %13, label %21

13:                                               ; preds = %7
  %14 = load ptr, ptr %2, align 8
  %15 = load ptr, ptr %14, align 8
  %16 = getelementptr inbounds %struct.Vec_Wrd_t_, ptr %15, i32 0, i32 2
  %17 = load ptr, ptr %16, align 8
  call void @free(ptr noundef %17) #11
  %18 = load ptr, ptr %2, align 8
  %19 = load ptr, ptr %18, align 8
  %20 = getelementptr inbounds %struct.Vec_Wrd_t_, ptr %19, i32 0, i32 2
  store ptr null, ptr %20, align 8
  br label %22

21:                                               ; preds = %7
  br label %22

22:                                               ; preds = %21, %13
  %23 = load ptr, ptr %2, align 8
  %24 = load ptr, ptr %23, align 8
  %25 = icmp ne ptr %24, null
  br i1 %25, label %26, label %30

26:                                               ; preds = %22
  %27 = load ptr, ptr %2, align 8
  %28 = load ptr, ptr %27, align 8
  call void @free(ptr noundef %28) #11
  %29 = load ptr, ptr %2, align 8
  store ptr null, ptr %29, align 8
  br label %31

30:                                               ; preds = %22
  br label %31

31:                                               ; preds = %30, %26
  br label %32

32:                                               ; preds = %31, %6
  ret void
}

; Function Attrs: nounwind uwtable
define internal i32 @Gia_ManCoNum(ptr noundef %0) #0 {
  %2 = alloca ptr, align 8
  store ptr %0, ptr %2, align 8
  %3 = load ptr, ptr %2, align 8
  %4 = getelementptr inbounds %struct.Gia_Man_t_, ptr %3, i32 0, i32 12
  %5 = load ptr, ptr %4, align 8
  %6 = call i32 @Vec_IntSize(ptr noundef %5)
  ret i32 %6
}

; Function Attrs: nounwind uwtable
define internal i64 @Abc_Clock() #0 {
  %1 = alloca i64, align 8
  %2 = alloca %struct.timespec, align 8
  %3 = alloca i64, align 8
  %4 = call i32 @clock_gettime(i32 noundef 1, ptr noundef %2) #11
  %5 = icmp slt i32 %4, 0
  br i1 %5, label %6, label %7

6:                                                ; preds = %0
  store i64 -1, ptr %1, align 8
  br label %18

7:                                                ; preds = %0
  %8 = getelementptr inbounds %struct.timespec, ptr %2, i32 0, i32 0
  %9 = load i64, ptr %8, align 8
  %10 = mul nsw i64 %9, 1000000
  store i64 %10, ptr %3, align 8
  %11 = getelementptr inbounds %struct.timespec, ptr %2, i32 0, i32 1
  %12 = load i64, ptr %11, align 8
  %13 = mul nsw i64 %12, 1000000
  %14 = sdiv i64 %13, 1000000000
  %15 = load i64, ptr %3, align 8
  %16 = add nsw i64 %15, %14
  store i64 %16, ptr %3, align 8
  %17 = load i64, ptr %3, align 8
  store i64 %17, ptr %1, align 8
  br label %18

18:                                               ; preds = %7, %6
  %19 = load i64, ptr %1, align 8
  ret i64 %19
}

; Function Attrs: nounwind uwtable
define ptr @Gia_ManTransformCond(ptr noundef %0) #0 {
  %2 = alloca ptr, align 8
  %3 = alloca i64, align 8
  %4 = alloca ptr, align 8
  %5 = alloca [4 x ptr], align 16
  %6 = alloca [6 x ptr], align 16
  %7 = alloca i32, align 4
  store ptr %0, ptr %2, align 8
  %8 = call i64 @Abc_Clock()
  store i64 %8, ptr %3, align 8
  store i32 0, ptr %7, align 4
  br label %9

9:                                                ; preds = %34, %1
  %10 = load i32, ptr %7, align 4
  %11 = load ptr, ptr %2, align 8
  %12 = call i32 @Gia_ManCoNum(ptr noundef %11)
  %13 = icmp slt i32 %10, %12
  br i1 %13, label %14, label %37

14:                                               ; preds = %9
  %15 = load ptr, ptr %2, align 8
  %16 = load i32, ptr %7, align 4
  %17 = call ptr @Gia_ManDetectSims(ptr noundef %15, i32 noundef %16, i32 noundef 1)
  store ptr %17, ptr %4, align 8
  %18 = load i32, ptr %7, align 4
  %19 = load ptr, ptr %2, align 8
  %20 = call i32 @Gia_ManCoNum(ptr noundef %19)
  %21 = sub nsw i32 %20, 4
  %22 = icmp sge i32 %18, %21
  br i1 %22, label %23, label %32

23:                                               ; preds = %14
  %24 = load ptr, ptr %4, align 8
  %25 = load i32, ptr %7, align 4
  %26 = load ptr, ptr %2, align 8
  %27 = call i32 @Gia_ManCoNum(ptr noundef %26)
  %28 = sub nsw i32 %27, 4
  %29 = sub nsw i32 %25, %28
  %30 = sext i32 %29 to i64
  %31 = getelementptr inbounds [4 x ptr], ptr %5, i64 0, i64 %30
  store ptr %24, ptr %31, align 8
  br label %33

32:                                               ; preds = %14
  call void @Vec_WrdFreeP(ptr noundef %4)
  br label %33

33:                                               ; preds = %32, %23
  br label %34

34:                                               ; preds = %33
  %35 = load i32, ptr %7, align 4
  %36 = add nsw i32 %35, 1
  store i32 %36, ptr %7, align 4
  br label %9, !llvm.loop !160

37:                                               ; preds = %9
  %38 = getelementptr inbounds [4 x ptr], ptr %5, i64 0, i64 0
  %39 = load ptr, ptr %38, align 16
  %40 = getelementptr inbounds [4 x ptr], ptr %5, i64 0, i64 1
  %41 = load ptr, ptr %40, align 8
  %42 = load ptr, ptr %2, align 8
  %43 = call i32 @Gia_ManCiNum(ptr noundef %42)
  %44 = call ptr @Vec_WrdInterleave(ptr noundef %39, ptr noundef %41, i32 noundef 1, i32 noundef %43)
  %45 = getelementptr inbounds [6 x ptr], ptr %6, i64 0, i64 0
  store ptr %44, ptr %45, align 16
  %46 = getelementptr inbounds [4 x ptr], ptr %5, i64 0, i64 0
  %47 = load ptr, ptr %46, align 16
  %48 = getelementptr inbounds [4 x ptr], ptr %5, i64 0, i64 2
  %49 = load ptr, ptr %48, align 16
  %50 = load ptr, ptr %2, align 8
  %51 = call i32 @Gia_ManCiNum(ptr noundef %50)
  %52 = call ptr @Vec_WrdInterleave(ptr noundef %47, ptr noundef %49, i32 noundef 1, i32 noundef %51)
  %53 = getelementptr inbounds [6 x ptr], ptr %6, i64 0, i64 1
  store ptr %52, ptr %53, align 8
  %54 = getelementptr inbounds [4 x ptr], ptr %5, i64 0, i64 0
  %55 = load ptr, ptr %54, align 16
  %56 = getelementptr inbounds [4 x ptr], ptr %5, i64 0, i64 3
  %57 = load ptr, ptr %56, align 8
  %58 = load ptr, ptr %2, align 8
  %59 = call i32 @Gia_ManCiNum(ptr noundef %58)
  %60 = call ptr @Vec_WrdInterleave(ptr noundef %55, ptr noundef %57, i32 noundef 1, i32 noundef %59)
  %61 = getelementptr inbounds [6 x ptr], ptr %6, i64 0, i64 2
  store ptr %60, ptr %61, align 16
  %62 = getelementptr inbounds [4 x ptr], ptr %5, i64 0, i64 1
  %63 = load ptr, ptr %62, align 8
  %64 = getelementptr inbounds [4 x ptr], ptr %5, i64 0, i64 2
  %65 = load ptr, ptr %64, align 16
  %66 = load ptr, ptr %2, align 8
  %67 = call i32 @Gia_ManCiNum(ptr noundef %66)
  %68 = call ptr @Vec_WrdInterleave(ptr noundef %63, ptr noundef %65, i32 noundef 1, i32 noundef %67)
  %69 = getelementptr inbounds [6 x ptr], ptr %6, i64 0, i64 3
  store ptr %68, ptr %69, align 8
  %70 = getelementptr inbounds [4 x ptr], ptr %5, i64 0, i64 1
  %71 = load ptr, ptr %70, align 8
  %72 = getelementptr inbounds [4 x ptr], ptr %5, i64 0, i64 3
  %73 = load ptr, ptr %72, align 8
  %74 = load ptr, ptr %2, align 8
  %75 = call i32 @Gia_ManCiNum(ptr noundef %74)
  %76 = call ptr @Vec_WrdInterleave(ptr noundef %71, ptr noundef %73, i32 noundef 1, i32 noundef %75)
  %77 = getelementptr inbounds [6 x ptr], ptr %6, i64 0, i64 4
  store ptr %76, ptr %77, align 16
  %78 = getelementptr inbounds [4 x ptr], ptr %5, i64 0, i64 2
  %79 = load ptr, ptr %78, align 16
  %80 = getelementptr inbounds [4 x ptr], ptr %5, i64 0, i64 3
  %81 = load ptr, ptr %80, align 8
  %82 = load ptr, ptr %2, align 8
  %83 = call i32 @Gia_ManCiNum(ptr noundef %82)
  %84 = call ptr @Vec_WrdInterleave(ptr noundef %79, ptr noundef %81, i32 noundef 1, i32 noundef %83)
  %85 = getelementptr inbounds [6 x ptr], ptr %6, i64 0, i64 5
  store ptr %84, ptr %85, align 8
  %86 = getelementptr inbounds [6 x ptr], ptr %6, i64 0, i64 0
  %87 = load ptr, ptr %86, align 16
  %88 = getelementptr inbounds [6 x ptr], ptr %6, i64 0, i64 5
  %89 = load ptr, ptr %88, align 8
  %90 = load ptr, ptr %2, align 8
  %91 = call i32 @Gia_ManCiNum(ptr noundef %90)
  call void @Gia_ManResubPair(ptr noundef %87, ptr noundef %89, i32 noundef 2, i32 noundef %91)
  %92 = getelementptr inbounds [6 x ptr], ptr %6, i64 0, i64 1
  %93 = load ptr, ptr %92, align 8
  %94 = getelementptr inbounds [6 x ptr], ptr %6, i64 0, i64 4
  %95 = load ptr, ptr %94, align 16
  %96 = load ptr, ptr %2, align 8
  %97 = call i32 @Gia_ManCiNum(ptr noundef %96)
  call void @Gia_ManResubPair(ptr noundef %93, ptr noundef %95, i32 noundef 2, i32 noundef %97)
  %98 = getelementptr inbounds [6 x ptr], ptr %6, i64 0, i64 2
  %99 = load ptr, ptr %98, align 16
  %100 = getelementptr inbounds [6 x ptr], ptr %6, i64 0, i64 3
  %101 = load ptr, ptr %100, align 8
  %102 = load ptr, ptr %2, align 8
  %103 = call i32 @Gia_ManCiNum(ptr noundef %102)
  call void @Gia_ManResubPair(ptr noundef %99, ptr noundef %101, i32 noundef 2, i32 noundef %103)
  %104 = getelementptr inbounds [6 x ptr], ptr %6, i64 0, i64 5
  %105 = load ptr, ptr %104, align 8
  %106 = getelementptr inbounds [6 x ptr], ptr %6, i64 0, i64 0
  %107 = load ptr, ptr %106, align 16
  %108 = load ptr, ptr %2, align 8
  %109 = call i32 @Gia_ManCiNum(ptr noundef %108)
  call void @Gia_ManResubPair(ptr noundef %105, ptr noundef %107, i32 noundef 2, i32 noundef %109)
  %110 = getelementptr inbounds [6 x ptr], ptr %6, i64 0, i64 4
  %111 = load ptr, ptr %110, align 16
  %112 = getelementptr inbounds [6 x ptr], ptr %6, i64 0, i64 1
  %113 = load ptr, ptr %112, align 8
  %114 = load ptr, ptr %2, align 8
  %115 = call i32 @Gia_ManCiNum(ptr noundef %114)
  call void @Gia_ManResubPair(ptr noundef %111, ptr noundef %113, i32 noundef 2, i32 noundef %115)
  %116 = getelementptr inbounds [6 x ptr], ptr %6, i64 0, i64 3
  %117 = load ptr, ptr %116, align 8
  %118 = getelementptr inbounds [6 x ptr], ptr %6, i64 0, i64 2
  %119 = load ptr, ptr %118, align 16
  %120 = load ptr, ptr %2, align 8
  %121 = call i32 @Gia_ManCiNum(ptr noundef %120)
  call void @Gia_ManResubPair(ptr noundef %117, ptr noundef %119, i32 noundef 2, i32 noundef %121)
  %122 = call i64 @Abc_Clock()
  %123 = load i64, ptr %3, align 8
  %124 = sub nsw i64 %122, %123
  call void @Abc_PrintTime(i32 noundef 0, ptr noundef @.str.26, i64 noundef %124)
  ret ptr null
}