; Function Attrs: nounwind uwtable
define noalias noundef ptr @Gia_ManTransformCond(ptr noundef %0) local_unnamed_addr #2 {
  %2 = alloca %struct.timespec, align 8
  %3 = alloca %struct.timespec, align 8
  %4 = alloca [4 x ptr], align 16
  call void @llvm.lifetime.start.p0(i64 16, ptr nonnull %3)
  %5 = call i32 @clock_gettime(i32 noundef 1, ptr noundef nonnull %3) #36
  %6 = icmp slt i32 %5, 0
  br i1 %6, label %Abc_Clock.exit, label %7

7:                                                ; preds = %1
  %8 = load i64, ptr %3, align 8
  %.neg45 = mul i64 %8, -1000000
  %9 = getelementptr inbounds nuw i8, ptr %3, i64 8
  %10 = load i64, ptr %9, align 8
  %.neg = sdiv i64 %10, -1000
  %.neg46 = add i64 %.neg, %.neg45
  br label %Abc_Clock.exit

Abc_Clock.exit:                                   ; preds = %1, %7
  %.0.i.neg = phi i64 [ %.neg46, %7 ], [ 1, %1 ]
  call void @llvm.lifetime.end.p0(i64 16, ptr nonnull %3)
  %11 = getelementptr i8, ptr %0, i64 72
  %.val2847 = load ptr, ptr %11, align 8
  %12 = getelementptr i8, ptr %.val2847, i64 4
  %.val28.val48 = load i32, ptr %12, align 4
  %13 = icmp sgt i32 %.val28.val48, 0
  call void @llvm.assume(i1 %13)
  br label %.lr.ph

.lr.ph:                                           ; preds = %Abc_Clock.exit, %Vec_WrdFreeP.exit
  %.049 = phi i32 [ %27, %Vec_WrdFreeP.exit ], [ 0, %Abc_Clock.exit ]
  %14 = call ptr @Gia_ManDetectSims(ptr noundef nonnull %0, i32 noundef %.049, i32 noundef 1)
  %.val27 = load ptr, ptr %11, align 8
  %15 = getelementptr i8, ptr %.val27, i64 4
  %.val27.val = load i32, ptr %15, align 4
  %16 = add nsw i32 %.val27.val, -4
  %.not = icmp slt i32 %.049, %16
  br i1 %.not, label %21, label %17

17:                                               ; preds = %.lr.ph
  %18 = sub nsw i32 %.049, %16
  %19 = sext i32 %18 to i64
  %20 = getelementptr inbounds [4 x ptr], ptr %4, i64 0, i64 %19
  store ptr %14, ptr %20, align 8
  br label %Vec_WrdFreeP.exit

21:                                               ; preds = %.lr.ph
  %22 = icmp eq ptr %14, null
  br i1 %22, label %Vec_WrdFreeP.exit, label %23

23:                                               ; preds = %21
  %24 = getelementptr inbounds nuw i8, ptr %14, i64 8
  %25 = load ptr, ptr %24, align 8
  %.not.i = icmp eq ptr %25, null
  br i1 %.not.i, label %.thread.i, label %26

26:                                               ; preds = %23
  call void @free(ptr noundef nonnull %25) #36
  %.val28.pre.pre = load ptr, ptr %11, align 8
  br label %.thread.i

.thread.i:                                        ; preds = %26, %23
  %.val28.pre = phi ptr [ %.val28.pre.pre, %26 ], [ %.val27, %23 ]
  call void @free(ptr noundef nonnull %14) #36
  %.phi.trans.insert = getelementptr i8, ptr %.val28.pre, i64 4
  %.val28.val.pre = load i32, ptr %.phi.trans.insert, align 4
  br label %Vec_WrdFreeP.exit

Vec_WrdFreeP.exit:                                ; preds = %.thread.i, %21, %17
  %.val28.val = phi i32 [ %.val28.val.pre, %.thread.i ], [ %.val27.val, %21 ], [ %.val27.val, %17 ]
  %27 = add nuw nsw i32 %.049, 1
  %28 = icmp slt i32 %27, %.val28.val
  br i1 %28, label %.lr.ph, label %._crit_edge.loopexit, !llvm.loop !158

._crit_edge.loopexit:                             ; preds = %Vec_WrdFreeP.exit
  %.pre = load ptr, ptr %4, align 16
  %.phi.trans.insert52 = getelementptr inbounds nuw i8, ptr %4, i64 8
  %.pre53 = load ptr, ptr %.phi.trans.insert52, align 8
  %.phi.trans.insert54 = getelementptr inbounds nuw i8, ptr %4, i64 16
  %.pre55 = load ptr, ptr %.phi.trans.insert54, align 16
  %.phi.trans.insert56 = getelementptr inbounds nuw i8, ptr %4, i64 24
  %.pre57 = load ptr, ptr %.phi.trans.insert56, align 8
  %29 = getelementptr i8, ptr %0, i64 64
  %.val40 = load ptr, ptr %29, align 8
  %30 = getelementptr i8, ptr %.val40, i64 4
  %.val40.val = load i32, ptr %30, align 4
  %31 = call ptr @Vec_WrdInterleave(ptr noundef %.pre, ptr noundef %.pre53, i32 noundef 1, i32 noundef %.val40.val)
  %.val39 = load ptr, ptr %29, align 8
  %32 = getelementptr i8, ptr %.val39, i64 4
  %.val39.val = load i32, ptr %32, align 4
  %33 = call ptr @Vec_WrdInterleave(ptr noundef %.pre, ptr noundef %.pre55, i32 noundef 1, i32 noundef %.val39.val)
  %.val38 = load ptr, ptr %29, align 8
  %34 = getelementptr i8, ptr %.val38, i64 4
  %.val38.val = load i32, ptr %34, align 4
  %35 = call ptr @Vec_WrdInterleave(ptr noundef %.pre, ptr noundef %.pre57, i32 noundef 1, i32 noundef %.val38.val)
  %.val37 = load ptr, ptr %29, align 8
  %36 = getelementptr i8, ptr %.val37, i64 4
  %.val37.val = load i32, ptr %36, align 4
  %37 = call ptr @Vec_WrdInterleave(ptr noundef %.pre53, ptr noundef %.pre55, i32 noundef 1, i32 noundef %.val37.val)
  %.val36 = load ptr, ptr %29, align 8
  %38 = getelementptr i8, ptr %.val36, i64 4
  %.val36.val = load i32, ptr %38, align 4
  %39 = call ptr @Vec_WrdInterleave(ptr noundef %.pre53, ptr noundef %.pre57, i32 noundef 1, i32 noundef %.val36.val)
  %.val35 = load ptr, ptr %29, align 8
  %40 = getelementptr i8, ptr %.val35, i64 4
  %.val35.val = load i32, ptr %40, align 4
  %41 = call ptr @Vec_WrdInterleave(ptr noundef %.pre55, ptr noundef %.pre57, i32 noundef 1, i32 noundef %.val35.val)
  %.val34 = load ptr, ptr %29, align 8
  %42 = getelementptr i8, ptr %.val34, i64 4
  %.val34.val = load i32, ptr %42, align 4
  call void @Gia_ManResubPair(ptr noundef %31, ptr noundef %41, i32 noundef 2, i32 noundef %.val34.val) #36
  %.val33 = load ptr, ptr %29, align 8
  %43 = getelementptr i8, ptr %.val33, i64 4
  %.val33.val = load i32, ptr %43, align 4
  call void @Gia_ManResubPair(ptr noundef %33, ptr noundef %39, i32 noundef 2, i32 noundef %.val33.val) #36
  %.val32 = load ptr, ptr %29, align 8
  %44 = getelementptr i8, ptr %.val32, i64 4
  %.val32.val = load i32, ptr %44, align 4
  call void @Gia_ManResubPair(ptr noundef %35, ptr noundef %37, i32 noundef 2, i32 noundef %.val32.val) #36
  %.val31 = load ptr, ptr %29, align 8
  %45 = getelementptr i8, ptr %.val31, i64 4
  %.val31.val = load i32, ptr %45, align 4
  call void @Gia_ManResubPair(ptr noundef %41, ptr noundef %31, i32 noundef 2, i32 noundef %.val31.val) #36
  %.val30 = load ptr, ptr %29, align 8
  %46 = getelementptr i8, ptr %.val30, i64 4
  %.val30.val = load i32, ptr %46, align 4
  call void @Gia_ManResubPair(ptr noundef %39, ptr noundef %33, i32 noundef 2, i32 noundef %.val30.val) #36
  %.val29 = load ptr, ptr %29, align 8
  %47 = getelementptr i8, ptr %.val29, i64 4
  %.val29.val = load i32, ptr %47, align 4
  call void @Gia_ManResubPair(ptr noundef %37, ptr noundef %35, i32 noundef 2, i32 noundef %.val29.val) #36
  call void @llvm.lifetime.start.p0(i64 16, ptr nonnull %2)
  %48 = call i32 @clock_gettime(i32 noundef 1, ptr noundef nonnull %2) #36
  %49 = icmp slt i32 %48, 0
  br i1 %49, label %Abc_Clock.exit42, label %50

50:                                               ; preds = %._crit_edge.loopexit
  %51 = load i64, ptr %2, align 8
  %52 = mul nsw i64 %51, 1000000
  %53 = getelementptr inbounds nuw i8, ptr %2, i64 8
  %54 = load i64, ptr %53, align 8
  %55 = sdiv i64 %54, 1000
  %56 = add nsw i64 %55, %52
  br label %Abc_Clock.exit42

Abc_Clock.exit42:                                 ; preds = %._crit_edge.loopexit, %50
  %.0.i41 = phi i64 [ %56, %50 ], [ -1, %._crit_edge.loopexit ]
  call void @llvm.lifetime.end.p0(i64 16, ptr nonnull %2)
  %57 = add i64 %.0.i41, %.0.i.neg
  call void (i32, ptr, ...) @Abc_Print(i32 poison, ptr noundef nonnull @.str.84, ptr noundef nonnull @.str.26)
  %58 = sitofp i64 %57 to double
  %59 = fdiv double %58, 1.000000e+06
  call void (i32, ptr, ...) @Abc_Print(i32 poison, ptr noundef nonnull @.str.85, double noundef %59)
  ret ptr null
}